target datalayout = "e-m:e-p270:32:32-p271:32:32-p272:64:64-i64:64-i128:128-f80:128-n8:16:32:64-S128"
target triple = "x86_64-unknown-linux-gnu"

%struct.QEMUClock = type { %struct.anon.0, i32, i8 }
%struct.anon.0 = type { ptr }
%struct.QEMUTimerList = type { ptr, %struct.QemuMutex, ptr, %struct.anon, ptr, ptr, %struct.QemuEvent }
%struct.QemuMutex = type { %union.pthread_mutex_t, i8 }
%union.pthread_mutex_t = type { %struct.__pthread_mutex_s }
%struct.__pthread_mutex_s = type { i32, i32, i32, i32, i32, i16, i16, %struct.__pthread_internal_list }
%struct.__pthread_internal_list = type { ptr, ptr }
%struct.anon = type { ptr, ptr }
%struct.QemuEvent = type { i32, i8 }

@qemu_clocks = internal global [4 x %struct.QEMUClock] zeroinitializer, align 16

; Function Attrs: nounwind sspstrong uwtable
define dso_local void @timerlist_notify(ptr noundef %timer_list) #0 {
entry:
  %timer_list.addr = alloca ptr, align 8
  store ptr %timer_list, ptr %timer_list.addr, align 8
  %0 = load ptr, ptr %timer_list.addr, align 8
  %notify_cb = getelementptr inbounds %struct.QEMUTimerList, ptr %0, i32 0, i32 4
  %1 = load ptr, ptr %notify_cb, align 8
  %tobool = icmp ne ptr %1, null
  br i1 %tobool, label %if.then, label %if.else

if.then:                                          ; preds = %entry
  %2 = load ptr, ptr %timer_list.addr, align 8
  %notify_cb1 = getelementptr inbounds %struct.QEMUTimerList, ptr %2, i32 0, i32 4
  %3 = load ptr, ptr %notify_cb1, align 8
  %4 = load ptr, ptr %timer_list.addr, align 8
  %notify_opaque = getelementptr inbounds %struct.QEMUTimerList, ptr %4, i32 0, i32 5
  %5 = load ptr, ptr %notify_opaque, align 8
  %6 = load ptr, ptr %timer_list.addr, align 8
  %clock = getelementptr inbounds %struct.QEMUTimerList, ptr %6, i32 0, i32 0
  %7 = load ptr, ptr %clock, align 8
  %type = getelementptr inbounds %struct.QEMUClock, ptr %7, i32 0, i32 1
  %8 = load i32, ptr %type, align 8
  call void %3(ptr noundef %5, i32 noundef %8)
  br label %if.end

if.else:                                          ; preds = %entry
  call void @qemu_notify_event()
  br label %if.end

if.end:                                           ; preds = %if.else, %if.then
  ret void
}

; Function Attrs: nounwind sspstrong uwtable
define dso_local void @qemu_clock_notify(i32 noundef %type) #0 {
entry:
  %type.addr = alloca i32, align 4
  %timer_list = alloca ptr, align 8
  %clock = alloca ptr, align 8
  store i32 %type, ptr %type.addr, align 4
  %0 = load i32, ptr %type.addr, align 4
  %call = call ptr @qemu_clock_ptr(i32 noundef %0)
  store ptr %call, ptr %clock, align 8
  %1 = load ptr, ptr %clock, align 8
  %timerlists = getelementptr inbounds %struct.QEMUClock, ptr %1, i32 0, i32 0
  %lh_first = getelementptr inbounds %struct.anon.0, ptr %timerlists, i32 0, i32 0
  %2 = load ptr, ptr %lh_first, align 8
  store ptr %2, ptr %timer_list, align 8
  br label %for.cond

for.cond:                                         ; preds = %for.inc, %entry
  %3 = load ptr, ptr %timer_list, align 8
  %tobool = icmp ne ptr %3, null
  br i1 %tobool, label %for.body, label %for.end

for.body:                                         ; preds = %for.cond
  %4 = load ptr, ptr %timer_list, align 8
  call void @timerlist_notify(ptr noundef %4)
  br label %for.inc

for.inc:                                          ; preds = %for.body
  %5 = load ptr, ptr %timer_list, align 8
  %list = getelementptr inbounds %struct.QEMUTimerList, ptr %5, i32 0, i32 3
  %le_next = getelementptr inbounds %struct.anon, ptr %list, i32 0, i32 0
  %6 = load ptr, ptr %le_next, align 8
  store ptr %6, ptr %timer_list, align 8
  br label %for.cond, !llvm.loop !5

for.end:                                          ; preds = %for.cond
  ret void
}

; Function Attrs: nounwind sspstrong uwtable
define internal ptr @qemu_clock_ptr(i32 noundef %type) #0 {
entry:
  %type.addr = alloca i32, align 4
  store i32 %type, ptr %type.addr, align 4
  %0 = load i32, ptr %type.addr, align 4
  %idxprom = zext i32 %0 to i64
  %arrayidx = getelementptr [4 x %struct.QEMUClock], ptr @qemu_clocks, i64 0, i64 %idxprom
  ret ptr %arrayidx
}

; Function Attrs: nounwind sspstrong uwtable
define dso_local void @qemu_clock_enable(i32 noundef %type, i1 noundef zeroext %enabled) #0 {
entry:
  %type.addr = alloca i32, align 4
  %enabled.addr = alloca i8, align 1
  %clock = alloca ptr, align 8
  %tl = alloca ptr, align 8
  %old = alloca i8, align 1
  store i32 %type, ptr %type.addr, align 4
  %frombool = zext i1 %enabled to i8
  store i8 %frombool, ptr %enabled.addr, align 1
  %0 = load i32, ptr %type.addr, align 4
  %call = call ptr @qemu_clock_ptr(i32 noundef %0)
  store ptr %call, ptr %clock, align 8
  %1 = load ptr, ptr %clock, align 8
  %enabled1 = getelementptr inbounds %struct.QEMUClock, ptr %1, i32 0, i32 2
  %2 = load i8, ptr %enabled1, align 4
  %tobool = trunc i8 %2 to i1
  %frombool2 = zext i1 %tobool to i8
  store i8 %frombool2, ptr %old, align 1
  %3 = load i8, ptr %enabled.addr, align 1
  %tobool3 = trunc i8 %3 to i1
  %4 = load ptr, ptr %clock, align 8
  %enabled4 = getelementptr inbounds %struct.QEMUClock, ptr %4, i32 0, i32 2
  %frombool5 = zext i1 %tobool3 to i8
  store i8 %frombool5, ptr %enabled4, align 4
  %5 = load i8, ptr %enabled.addr, align 1
  %tobool6 = trunc i8 %5 to i1
  br i1 %tobool6, label %land.lhs.true, label %if.else

land.lhs.true:                                    ; preds = %entry
  %6 = load i8, ptr %old, align 1
  %tobool7 = trunc i8 %6 to i1
  br i1 %tobool7, label %if.else, label %if.then

if.then:                                          ; preds = %land.lhs.true
  %7 = load i32, ptr %type.addr, align 4
  call void @qemu_clock_notify(i32 noundef %7)
  br label %if.end13

if.else:                                          ; preds = %land.lhs.true, %entry
  %8 = load i8, ptr %enabled.addr, align 1
  %tobool8 = trunc i8 %8 to i1
  br i1 %tobool8, label %if.end, label %land.lhs.true9

land.lhs.true9:                                   ; preds = %if.else
  %9 = load i8, ptr %old, align 1
  %tobool10 = trunc i8 %9 to i1
  br i1 %tobool10, label %if.then11, label %if.end

if.then11:                                        ; preds = %land.lhs.true9
  %10 = load ptr, ptr %clock, align 8
  %timerlists = getelementptr inbounds %struct.QEMUClock, ptr %10, i32 0, i32 0
  %lh_first = getelementptr inbounds %struct.anon.0, ptr %timerlists, i32 0, i32 0
  %11 = load ptr, ptr %lh_first, align 8
  store ptr %11, ptr %tl, align 8
  br label %for.cond

for.cond:                                         ; preds = %for.inc, %if.then11
  %12 = load ptr, ptr %tl, align 8
  %tobool12 = icmp ne ptr %12, null
  br i1 %tobool12, label %for.body, label %for.end

for.body:                                         ; preds = %for.cond
  %13 = load ptr, ptr %tl, align 8
  %timers_done_ev = getelementptr inbounds %struct.QEMUTimerList, ptr %13, i32 0, i32 6
  call void @qemu_event_wait(ptr noundef %timers_done_ev)
  br label %for.inc

for.inc:                                          ; preds = %for.body
  %14 = load ptr, ptr %tl, align 8
  %list = getelementptr inbounds %struct.QEMUTimerList, ptr %14, i32 0, i32 3
  %le_next = getelementptr inbounds %struct.anon, ptr %list, i32 0, i32 0
  %15 = load ptr, ptr %le_next, align 8
  store ptr %15, ptr %tl, align 8
  br label %for.cond, !llvm.loop !7

for.end:                                          ; preds = %for.cond
  br label %if.end

if.end:                                           ; preds = %for.end, %land.lhs.true9, %if.else
  br label %if.end13

if.end13:                                         ; preds = %if.end, %if.then
  ret void
}