; Function Attrs: nounwind sspstrong uwtable
define dso_local void @qemu_clock_enable(i32 noundef %type, i1 noundef zeroext %enabled) local_unnamed_addr #0 {
entry:
  %frombool = zext i1 %enabled to i8
  %idxprom.i = zext i32 %type to i64
  %arrayidx.i = getelementptr [4 x %struct.QEMUClock], ptr @qemu_clocks, i64 0, i64 %idxprom.i
  %enabled1 = getelementptr inbounds nuw i8, ptr %arrayidx.i, i64 12
  %0 = load i8, ptr %enabled1, align 4
  %tobool = trunc i8 %0 to i1
  store i8 %frombool, ptr %enabled1, align 4
  %enabled.not = xor i1 %enabled, true
  %brmerge = select i1 %enabled.not, i1 true, i1 %tobool
  br i1 %brmerge, label %if.else, label %if.then

if.then:                                          ; preds = %entry
  %timer_list.03.i = load ptr, ptr %arrayidx.i, align 16
  %tobool.not4.i = icmp eq ptr %timer_list.03.i, null
  br i1 %tobool.not4.i, label %if.end13, label %for.body.i

for.body.i:                                       ; preds = %if.then, %timerlist_notify.exit.i
  %timer_list.05.i = phi ptr [ %timer_list.0.i, %timerlist_notify.exit.i ], [ %timer_list.03.i, %if.then ]
  %notify_cb.i.i = getelementptr inbounds nuw i8, ptr %timer_list.05.i, i64 80
  %1 = load ptr, ptr %notify_cb.i.i, align 8
  %tobool.not.i.i = icmp eq ptr %1, null
  br i1 %tobool.not.i.i, label %if.else.i.i, label %if.then.i.i

if.then.i.i:                                      ; preds = %for.body.i
  %notify_opaque.i.i = getelementptr inbounds nuw i8, ptr %timer_list.05.i, i64 88
  %2 = load ptr, ptr %notify_opaque.i.i, align 8
  %3 = load ptr, ptr %timer_list.05.i, align 8
  %type.i.i = getelementptr inbounds nuw i8, ptr %3, i64 8
  %4 = load i32, ptr %type.i.i, align 8
  tail call void %1(ptr noundef %2, i32 noundef %4) #17
  br label %timerlist_notify.exit.i

if.else.i.i:                                      ; preds = %for.body.i
  tail call void @qemu_notify_event() #17
  br label %timerlist_notify.exit.i

timerlist_notify.exit.i:                          ; preds = %if.else.i.i, %if.then.i.i
  %list.i = getelementptr inbounds nuw i8, ptr %timer_list.05.i, i64 64
  %timer_list.0.i = load ptr, ptr %list.i, align 8
  %tobool.not.i = icmp eq ptr %timer_list.0.i, null
  br i1 %tobool.not.i, label %if.end13, label %for.body.i, !llvm.loop !5

if.else:                                          ; preds = %entry
  %tobool.not = xor i1 %tobool, true
  %brmerge9 = select i1 %enabled, i1 true, i1 %tobool.not
  br i1 %brmerge9, label %if.end13, label %for.cond.preheader

for.cond.preheader:                               ; preds = %if.else
  %tl.011 = load ptr, ptr %arrayidx.i, align 16
  %tobool12.not12 = icmp eq ptr %tl.011, null
  br i1 %tobool12.not12, label %if.end13, label %for.body

for.body:                                         ; preds = %for.cond.preheader, %for.body
  %tl.013 = phi ptr [ %tl.0, %for.body ], [ %tl.011, %for.cond.preheader ]
  %timers_done_ev = getelementptr inbounds nuw i8, ptr %tl.013, i64 96
  tail call void @qemu_event_wait(ptr noundef nonnull %timers_done_ev) #17
  %list = getelementptr inbounds nuw i8, ptr %tl.013, i64 64
  %tl.0 = load ptr, ptr %list, align 8
  %tobool12.not = icmp eq ptr %tl.0, null
  br i1 %tobool12.not, label %if.end13, label %for.body, !llvm.loop !7

if.end13:                                         ; preds = %timerlist_notify.exit.i, %for.body, %for.cond.preheader, %if.then, %if.else
  ret void
}